(dp0
S'qjdown'
p1
(lp2
(dp3
S'YNpoker_zs_v3_201810241608.apk'
p4
(lp5
I71657477
aS'2018-10-24 10:01'
p6
asa(dp7
S'aapoker_v1.0.4_201808131606.apk'
p8
(lp9
I60892173
aS'2018-08-13 08:39'
p10
asa(dp11
S'icon.png'
p12
(lp13
I24861
aS'2018-08-15 09:57'
p14
asa(dp15
S'ios_YNpoker.ipa'
p16
(lp17
I60933969
aS'2018-08-15 09:56'
p18
asasS'wsdownload'
p19
(lp20
(dp21
S'icon.png'
p22
(lp23
I26373
aS'2018-08-15 08:59'
p24
asa(dp25
S'ios_YNwenshan.ipa'
p26
(lp27
I65722016
aS'2018-08-15 08:54'
p28
asa(dp29
S'ws_v3_zs_201808251922.apk'
p30
(lp31
I77634894
aS'2018-08-26 14:35'
p32
asa(dp33
S'ws_zs_201812051512.apk'
p34
(lp35
I95797096
aS'2018-12-05 10:54'
p36
asa(dp37
S'ws_zs_201812251625.apk'
p38
(lp39
I97055600
aS'2018-12-25 09:26'
p40
asa(dp41
S'ws_zs_v1.4.4_201807241740.apk'
p42
(lp43
I66723348
aS'2018-07-24 09:45'
p44
asa(dp45
S'ynwenshan-zs-majiang.apk'
p46
(lp47
I56903429
aS'2018-04-25 17:16'
p48
asasS'bsdown'
p49
(lp50
(dp51
S'ynbaoshan-zs-majiang_20180927.apk'
p52
(lp53
I69121771
aS'2018-09-27 07:07'
p54
asasS'yndownload'
p55
(lp56
(dp57
S'gejiu_v3_zs_201808251936.apk'
p58
(lp59
I73742041
aS'2018-08-26 14:37'
p60
asa(dp61
S'gejiu_v3_zs_201811281637.apk'
p62
(lp63
I94911835
aS'2018-11-28 17:47'
p64
asa(dp65
S'icon.png'
p66
(lp67
I25852
aS'2018-08-15 10:01'
p68
asa(dp69
S'ios_YNgejiu.ipa'
p70
(lp71
I61472759
aS'2018-08-15 09:59'
p72
asa(dp73
S'yngejiu-zs-majiang.apk'
p74
(lp75
I50487770
aS'2018-04-26 16:26'
p76
asasS'neimeng'
p77
(lp78
(dp79
S'NeiMeng_zs_majiang.apk'
p80
(lp81
I38123274
aS'2018-06-13 10:06'
p82
asa(dp83
S'icon.png'
p84
(lp85
I19406
aS'2018-08-15 10:03'
p86
asa(dp87
S'ios_NeiMeng.ipa'
p88
(lp89
I39321222
aS'2018-08-15 10:03'
p90
asasS'jzdownload'
p91
(lp92
(dp93
S'icon.png'
p94
(lp95
I24933
aS'2018-08-15 10:06'
p96
asa(dp97
S'ios_JinZhou.ipa'
p98
(lp99
I59286277
aS'2018-08-15 10:06'
p100
asa(dp101
S'jinZhou_zs_quick3_v5.6.1_201807261758.apk'
p102
(lp103
I59188035
aS'2018-07-30 08:49'
p104
asa(dp105
S'jinZhou_zs_quick3_v5.6.1_201807311054.apk'
p106
(lp107
I55663915
aS'2018-07-31 03:15'
p108
asa(dp109
S'jinzhou-zs-majiang.apk'
p110
(lp111
I57255378
aS'2018-04-17 17:28'
p112
asasS'download'
p113
(lp114
(dp115
S'lx-m2-1105-02.apk'
p116
(lp117
I35242913
aS'2018-11-05 05:50'
p118
asa(dp119
S'lx-m2-1110.apk'
p120
(lp121
I37370946
aS'2018-11-09 10:46'
p122
asa(dp123
S'lx-m2-1111.apk'
p124
(lp125
I37432208
aS'2018-11-10 12:56'
p126
asa(dp127
S'lx-m2-1114.apk'
p128
(lp129
I38127629
aS'2018-11-15 01:31'
p130
asa(dp131
S'lx-m2-1128.apk'
p132
(lp133
I37490497
aS'2018-11-28 07:37'
p134
asa(dp135
S'lx-m2-1219.apk'
p136
(lp137
I37461378
aS'2018-12-19 10:35'
p138
asa(dp139
S'lx-m2-1220.apk'
p140
(lp141
I37466530
aS'2018-12-20 03:54'
p142
asa(dp143
S'lx-m2-1227.apk'
p144
(lp145
I37475182
aS'2018-12-28 09:31'
p146
asa(dp147
S'm2.ipa'
p148
(lp149
I39126594
aS'2018-08-11 02:17'
p150
asasS'jiayudown'
p151
(lp152
(dp153
S'icon.png'
p154
(lp155
I27260
aS'2018-08-15 10:08'
p156
asa(dp157
S'ios_JiaYu.ipa'
p158
(lp159
I44154788
aS'2018-08-15 10:08'
p160
asa(dp161
S'jiayu-zs-majiang.apk'
p162
(lp163
I39595635
aS'2018-07-12 02:25'
p164
asasS'xsbndownload'
p165
(lp166
(dp167
S'icon.png'
p168
(lp169
I23397
aS'2018-08-15 08:52'
p170
asa(dp171
S'ios_YNxsbn.ipa'
p172
(lp173
I52693981
aS'2018-08-15 08:44'
p174
asa(dp175
S'xsbn_zs_v2.4.2_201807181758.apk'
p176
(lp177
I52454330
aS'2018-07-19 02:00'
p178
asa(dp179
S'xsbn_zs_v2.6.1_201810101150.apk'
p180
(lp181
I56341824
aS'2018-10-10 16:10'
p182
asas.